; Function Attrs: nofree norecurse nosync nounwind memory(argmem: write) uwtable
define hidden range(i32 -128, 128) i32 @_PyUnicode_ToUpperFull(i32 noundef %0, ptr noundef writeonly captures(none) %1) local_unnamed_addr #1 {
  %3 = icmp ugt i32 %0, 1114111
  br i1 %3, label %gettyperecord.exit, label %4

4:                                                ; preds = %2
  %5 = lshr i32 %0, 6
  %6 = zext nneg i32 %5 to i64
  %7 = getelementptr [17408 x i16], ptr @index1, i64 0, i64 %6
  %8 = load i16, ptr %7, align 2, !tbaa !4
  %9 = zext i16 %8 to i32
  %10 = shl nuw nsw i32 %9, 6
  %11 = and i32 %0, 63
  %12 = or disjoint i32 %10, %11
  %13 = zext nneg i32 %12 to i64
  %14 = getelementptr [29312 x i16], ptr @index2, i64 0, i64 %13
  %15 = load i16, ptr %14, align 2, !tbaa !4
  %16 = zext i16 %15 to i64
  br label %gettyperecord.exit

gettyperecord.exit:                               ; preds = %2, %4
  %.0.i = phi i64 [ %16, %4 ], [ 0, %2 ]
  %17 = getelementptr [509 x %struct._PyUnicode_TypeRecord], ptr @_PyUnicode_TypeRecords, i64 0, i64 %.0.i
  %18 = getelementptr inbounds nuw i8, ptr %17, i64 14
  %19 = load i16, ptr %18, align 2, !tbaa !8
  %20 = and i16 %19, 16384
  %.not = icmp eq i16 %20, 0
  %21 = load i32, ptr %17, align 16, !tbaa !15
  br i1 %.not, label %31, label %22

22:                                               ; preds = %gettyperecord.exit
  %23 = ashr i32 %21, 24
  %24 = icmp sgt i32 %23, 0
  br i1 %24, label %.lr.ph.preheader, label %.loopexit

.lr.ph.preheader:                                 ; preds = %22
  %25 = and i32 %21, 65535
  %26 = zext nneg i32 %25 to i64
  %wide.trip.count = zext nneg i32 %23 to i64
  br label %.lr.ph

.lr.ph:                                           ; preds = %.lr.ph.preheader, %.lr.ph
  %indvars.iv = phi i64 [ 0, %.lr.ph.preheader ], [ %indvars.iv.next, %.lr.ph ]
  %27 = add nuw nsw i64 %indvars.iv, %26
  %28 = getelementptr [1236 x i32], ptr @_PyUnicode_ExtendedCase, i64 0, i64 %27
  %29 = load i32, ptr %28, align 4, !tbaa !12
  %30 = getelementptr i32, ptr %1, i64 %indvars.iv
  store i32 %29, ptr %30, align 4, !tbaa !12
  %indvars.iv.next = add nuw nsw i64 %indvars.iv, 1
  %exitcond.not = icmp eq i64 %indvars.iv.next, %wide.trip.count
  br i1 %exitcond.not, label %.loopexit, label %.lr.ph, !llvm.loop !20

31:                                               ; preds = %gettyperecord.exit
  %32 = add i32 %21, %0
  store i32 %32, ptr %1, align 4, !tbaa !12
  br label %.loopexit

.loopexit:                                        ; preds = %.lr.ph, %22, %31
  %.015 = phi i32 [ 1, %31 ], [ %23, %22 ], [ %23, %.lr.ph ]
  ret i32 %.015
}